; ModuleID = 'source-C-CXX/33/428.c'
source_filename = "source-C-CXX/33/428.c"
target datalayout = "e-m:e-p270:32:32-p271:32:32-p272:64:64-i64:64-f80:128-n8:16:32:64-S128"
target triple = "x86_64-pc-linux-gnu"

@.str = private unnamed_addr constant [3 x i8] c"%d\00", align 1
@.str.1 = private unnamed_addr constant [4 x i8] c"End\00", align 1
@.str.2 = private unnamed_addr constant [9 x i8] c"%d/2=%d\0A\00", align 1
@.str.3 = private unnamed_addr constant [11 x i8] c"%d*3+1=%d\0A\00", align 1

; Function Attrs: nofree nounwind sspstrong uwtable
define dso_local i32 @main() local_unnamed_addr #0 {
  %1 = alloca i32, align 4
  %2 = alloca [1000000 x i32], align 16
  %3 = bitcast i32* %1 to i8*
  call void @llvm.lifetime.start.p0i8(i64 4, i8* nonnull %3) #3
  %4 = bitcast [1000000 x i32]* %2 to i8*
  call void @llvm.lifetime.start.p0i8(i64 4000000, i8* nonnull %4) #3
  %5 = call i32 (i8*, ...) @__isoc99_scanf(i8* getelementptr inbounds ([3 x i8], [3 x i8]* @.str, i64 0, i64 0), i32* nonnull %1)
  %6 = load i32, i32* %1, align 4, !tbaa !5
  %7 = getelementptr inbounds [1000000 x i32], [1000000 x i32]* %2, i64 0, i64 0
  store i32 %6, i32* %7, align 16, !tbaa !5
  %8 = icmp eq i32 %6, 1
  br i1 %8, label %44, label %9

9:                                                ; preds = %0, %40
  %10 = phi i32 [ %41, %40 ], [ %6, %0 ]
  %11 = phi i32 [ %42, %40 ], [ 0, %0 ]
  %12 = and i32 %10, 1
  %13 = icmp eq i32 %12, 0
  br i1 %13, label %16, label %14

14:                                               ; preds = %9
  %15 = sext i32 %11 to i64
  br label %24

16:                                               ; preds = %9
  %17 = sdiv i32 %10, 2
  %18 = add nsw i32 %11, 1
  %19 = sext i32 %18 to i64
  %20 = getelementptr inbounds [1000000 x i32], [1000000 x i32]* %2, i64 0, i64 %19
  store i32 %17, i32* %20, align 4, !tbaa !5
  %21 = call i32 (i8*, ...) @printf(i8* nonnull dereferenceable(1) getelementptr inbounds ([9 x i8], [9 x i8]* @.str.2, i64 0, i64 0), i32 %10, i32 %17)
  %22 = and i32 %10, -2
  %23 = icmp eq i32 %22, 2
  br i1 %23, label %44, label %24

24:                                               ; preds = %14, %16
  %25 = phi i64 [ %15, %14 ], [ %19, %16 ]
  %26 = phi i32 [ %11, %14 ], [ %18, %16 ]
  %27 = phi i32 [ %10, %14 ], [ %17, %16 ]
  %28 = and i32 %27, 1
  %29 = icmp eq i32 %28, 0
  br i1 %29, label %30, label %33

30:                                               ; preds = %24
  %31 = getelementptr inbounds [1000000 x i32], [1000000 x i32]* %2, i64 0, i64 %25
  %32 = load i32, i32* %31, align 4, !tbaa !5
  br label %40

33:                                               ; preds = %24
  %34 = mul nsw i32 %27, 3
  %35 = add nsw i32 %34, 1
  %36 = add nsw i32 %26, 1
  %37 = sext i32 %36 to i64
  %38 = getelementptr inbounds [1000000 x i32], [1000000 x i32]* %2, i64 0, i64 %37
  store i32 %35, i32* %38, align 4, !tbaa !5
  %39 = call i32 (i8*, ...) @printf(i8* nonnull dereferenceable(1) getelementptr inbounds ([11 x i8], [11 x i8]* @.str.3, i64 0, i64 0), i32 %27, i32 %35)
  br label %40

40:                                               ; preds = %30, %33
  %41 = phi i32 [ %35, %33 ], [ %32, %30 ]
  %42 = phi i32 [ %36, %33 ], [ %26, %30 ]
  %43 = icmp eq i32 %41, 1
  br i1 %43, label %44, label %9, !llvm.loop !9

44:                                               ; preds = %40, %16, %0
  %45 = call i32 (i8*, ...) @printf(i8* nonnull dereferenceable(1) getelementptr inbounds ([4 x i8], [4 x i8]* @.str.1, i64 0, i64 0))
  call void @llvm.lifetime.end.p0i8(i64 4000000, i8* nonnull %4) #3
  call void @llvm.lifetime.end.p0i8(i64 4, i8* nonnull %3) #3
  ret i32 0
}

; Function Attrs: argmemonly mustprogress nofree nosync nounwind willreturn
declare void @llvm.lifetime.start.p0i8(i64 immarg, i8* nocapture) #1

; Function Attrs: nofree nounwind
declare noundef i32 @__isoc99_scanf(i8* nocapture noundef readonly, ...) local_unnamed_addr #2

; Function Attrs: nofree nounwind
declare noundef i32 @printf(i8* nocapture noundef readonly, ...) local_unnamed_addr #2

; Function Attrs: argmemonly mustprogress nofree nosync nounwind willreturn
declare void @llvm.lifetime.end.p0i8(i64 immarg, i8* nocapture) #1


!llvm.module.flags = !{!0, !1, !2, !3}
!llvm.ident = !{!4}

!0 = !{i32 1, !"wchar_size", i32 4}
!1 = !{i32 7, !"PIC Level", i32 2}
!2 = !{i32 7, !"PIE Level", i32 2}
!3 = !{i32 7, !"uwtable", i32 1}
!4 = !{!"clang version 13.0.0"}
!5 = !{!6, !6, i64 0}
!6 = !{!"int", !7, i64 0}
!7 = !{!"omnipotent char", !8, i64 0}
!8 = !{!"Simple C/C++ TBAA"}
!9 = distinct !{!9, !10}
!10 = !{!"llvm.loop.mustprogress"}
